target datalayout = "e-m:e-p270:32:32-p271:32:32-p272:64:64-i64:64-i128:128-f80:128-n8:16:32:64-S128"
target triple = "x86_64-pc-linux-gnu"

%struct._object = type { %union.anon, ptr }
%union.anon = type { i64 }
%struct.PyVarObject = type { %struct._object, i64 }
%struct.PyListObject = type { %struct.PyVarObject, ptr, i64 }
%struct.anon = type { i32, i32 }

@.str.1 = private unnamed_addr constant [32 x i8] c"../cpython/Objects/listobject.c\00", align 1

; Function Attrs: alwaysinline nounwind uwtable
define internal void @Py_INCREF(ptr noundef %0) #4 {
  %2 = alloca ptr, align 8
  %3 = alloca i32, align 4
  %4 = alloca i32, align 4
  store ptr %0, ptr %2, align 8, !tbaa !36
  call void @llvm.lifetime.start.p0(i64 4, ptr %3) #8
  %5 = load ptr, ptr %2, align 8, !tbaa !36
  %6 = getelementptr inbounds nuw %struct._object, ptr %5, i32 0, i32 0
  %7 = getelementptr inbounds nuw %struct.anon, ptr %6, i32 0, i32 0
  %8 = load i32, ptr %7, align 8, !tbaa !37
  store i32 %8, ptr %3, align 4, !tbaa !118
  %9 = load i32, ptr %3, align 4, !tbaa !118
  %10 = icmp slt i32 %9, 0
  br i1 %10, label %11, label %12

11:                                               ; preds = %1
  store i32 1, ptr %4, align 4
  br label %18

12:                                               ; preds = %1
  %13 = load i32, ptr %3, align 4, !tbaa !118
  %14 = add i32 %13, 1
  %15 = load ptr, ptr %2, align 8, !tbaa !36
  %16 = getelementptr inbounds nuw %struct._object, ptr %15, i32 0, i32 0
  %17 = getelementptr inbounds nuw %struct.anon, ptr %16, i32 0, i32 0
  store i32 %14, ptr %17, align 8, !tbaa !37
  store i32 0, ptr %4, align 4
  br label %18

18:                                               ; preds = %12, %11
  call void @llvm.lifetime.end.p0(i64 4, ptr %3) #8
  %19 = load i32, ptr %4, align 4
  switch i32 %19, label %21 [
    i32 0, label %20
    i32 1, label %20
  ]

20:                                               ; preds = %18, %18
  ret void

21:                                               ; preds = %18
  unreachable
}

; Function Attrs: nounwind uwtable
define internal void @ensure_shared_on_resize(ptr noundef %0) #0 {
  %2 = alloca ptr, align 8
  store ptr %0, ptr %2, align 8, !tbaa !27
  ret void
}

; Function Attrs: inlinehint nounwind uwtable
define internal void @Py_SET_SIZE(ptr noundef %0, i64 noundef %1) #2 {
  %3 = alloca ptr, align 8
  %4 = alloca i64, align 8
  store ptr %0, ptr %3, align 8, !tbaa !27
  store i64 %1, ptr %4, align 8, !tbaa !26
  %5 = load i64, ptr %4, align 8, !tbaa !26
  %6 = load ptr, ptr %3, align 8, !tbaa !27
  %7 = getelementptr inbounds nuw %struct.PyVarObject, ptr %6, i32 0, i32 1
  store i64 %5, ptr %7, align 8, !tbaa !38
  ret void
}

; Function Attrs: inlinehint nounwind uwtable
define internal ptr @_Py_NewRef(ptr noundef %0) #2 {
  %2 = alloca ptr, align 8
  store ptr %0, ptr %2, align 8, !tbaa !36
  %3 = load ptr, ptr %2, align 8, !tbaa !36
  call void @Py_INCREF(ptr noundef %3)
  %4 = load ptr, ptr %2, align 8, !tbaa !36
  ret ptr %4
}

; Function Attrs: nounwind uwtable
define internal i32 @list_resize(ptr noundef %0, i64 noundef %1) #0 {
  %3 = alloca i32, align 4
  %4 = alloca ptr, align 8
  %5 = alloca i64, align 8
  %6 = alloca i64, align 8
  %7 = alloca i64, align 8
  %8 = alloca i64, align 8
  %9 = alloca i32, align 4
  %10 = alloca ptr, align 8
  store ptr %0, ptr %4, align 8, !tbaa !27
  store i64 %1, ptr %5, align 8, !tbaa !26
  call void @llvm.lifetime.start.p0(i64 8, ptr %6) #8
  call void @llvm.lifetime.start.p0(i64 8, ptr %7) #8
  call void @llvm.lifetime.start.p0(i64 8, ptr %8) #8
  %11 = load ptr, ptr %4, align 8, !tbaa !27
  %12 = getelementptr inbounds nuw %struct.PyListObject, ptr %11, i32 0, i32 2
  %13 = load i64, ptr %12, align 8, !tbaa !33
  store i64 %13, ptr %8, align 8, !tbaa !26
  %14 = load i64, ptr %8, align 8, !tbaa !26
  %15 = load i64, ptr %5, align 8, !tbaa !26
  %16 = icmp sge i64 %14, %15
  br i1 %16, label %17, label %25

17:                                               ; preds = %2
  %18 = load i64, ptr %5, align 8, !tbaa !26
  %19 = load i64, ptr %8, align 8, !tbaa !26
  %20 = ashr i64 %19, 1
  %21 = icmp sge i64 %18, %20
  br i1 %21, label %22, label %25

22:                                               ; preds = %17
  %23 = load ptr, ptr %4, align 8, !tbaa !27
  %24 = load i64, ptr %5, align 8, !tbaa !26
  call void @Py_SET_SIZE(ptr noundef %23, i64 noundef %24)
  store i32 0, ptr %3, align 4
  store i32 1, ptr %9, align 4
  br label %76

25:                                               ; preds = %17, %2
  %26 = load i64, ptr %5, align 8, !tbaa !26
  %27 = load i64, ptr %5, align 8, !tbaa !26
  %28 = ashr i64 %27, 3
  %29 = add i64 %26, %28
  %30 = add i64 %29, 6
  %31 = and i64 %30, -4
  store i64 %31, ptr %6, align 8, !tbaa !26
  %32 = load i64, ptr %5, align 8, !tbaa !26
  %33 = load ptr, ptr %4, align 8, !tbaa !27
  %34 = call i64 @Py_SIZE(ptr noundef %33)
  %35 = sub i64 %32, %34
  %36 = load i64, ptr %6, align 8, !tbaa !26
  %37 = load i64, ptr %5, align 8, !tbaa !26
  %38 = sub i64 %36, %37
  %39 = icmp sgt i64 %35, %38
  br i1 %39, label %40, label %44

40:                                               ; preds = %25
  %41 = load i64, ptr %5, align 8, !tbaa !26
  %42 = add i64 %41, 3
  %43 = and i64 %42, -4
  store i64 %43, ptr %6, align 8, !tbaa !26
  br label %44

44:                                               ; preds = %40, %25
  %45 = load i64, ptr %5, align 8, !tbaa !26
  %46 = icmp eq i64 %45, 0
  br i1 %46, label %47, label %48

47:                                               ; preds = %44
  store i64 0, ptr %6, align 8, !tbaa !26
  br label %48

48:                                               ; preds = %47, %44
  %49 = load ptr, ptr %4, align 8, !tbaa !27
  call void @ensure_shared_on_resize(ptr noundef %49)
  call void @llvm.lifetime.start.p0(i64 8, ptr %10) #8
  %50 = load i64, ptr %6, align 8, !tbaa !26
  %51 = icmp ule i64 %50, 1152921504606846975
  br i1 %51, label %52, label %60

52:                                               ; preds = %48
  %53 = load i64, ptr %6, align 8, !tbaa !26
  %54 = mul i64 %53, 8
  store i64 %54, ptr %7, align 8, !tbaa !26
  %55 = load ptr, ptr %4, align 8, !tbaa !27
  %56 = getelementptr inbounds nuw %struct.PyListObject, ptr %55, i32 0, i32 1
  %57 = load ptr, ptr %56, align 8, !tbaa !28
  %58 = load i64, ptr %7, align 8, !tbaa !26
  %59 = call ptr @PyMem_Realloc(ptr noundef %57, i64 noundef %58)
  store ptr %59, ptr %10, align 8, !tbaa !119
  br label %61

60:                                               ; preds = %48
  store ptr null, ptr %10, align 8, !tbaa !119
  br label %61

61:                                               ; preds = %60, %52
  %62 = load ptr, ptr %10, align 8, !tbaa !119
  %63 = icmp eq ptr %62, null
  br i1 %63, label %64, label %66

64:                                               ; preds = %61
  %65 = call ptr @PyErr_NoMemory()
  store i32 -1, ptr %3, align 4
  store i32 1, ptr %9, align 4
  br label %75

66:                                               ; preds = %61
  %67 = load ptr, ptr %10, align 8, !tbaa !119
  %68 = load ptr, ptr %4, align 8, !tbaa !27
  %69 = getelementptr inbounds nuw %struct.PyListObject, ptr %68, i32 0, i32 1
  store ptr %67, ptr %69, align 8, !tbaa !28
  %70 = load ptr, ptr %4, align 8, !tbaa !27
  %71 = load i64, ptr %5, align 8, !tbaa !26
  call void @Py_SET_SIZE(ptr noundef %70, i64 noundef %71)
  %72 = load i64, ptr %6, align 8, !tbaa !26
  %73 = load ptr, ptr %4, align 8, !tbaa !27
  %74 = getelementptr inbounds nuw %struct.PyListObject, ptr %73, i32 0, i32 2
  store i64 %72, ptr %74, align 8, !tbaa !33
  store i32 0, ptr %3, align 4
  store i32 1, ptr %9, align 4
  br label %75

75:                                               ; preds = %66, %64
  call void @llvm.lifetime.end.p0(i64 8, ptr %10) #8
  br label %76

76:                                               ; preds = %75, %22
  call void @llvm.lifetime.end.p0(i64 8, ptr %8) #8
  call void @llvm.lifetime.end.p0(i64 8, ptr %7) #8
  call void @llvm.lifetime.end.p0(i64 8, ptr %6) #8
  %77 = load i32, ptr %3, align 4
  ret i32 %77
}

; Function Attrs: inlinehint nounwind uwtable
define internal i64 @Py_SIZE(ptr noundef %0) #2 {
  %2 = alloca ptr, align 8
  store ptr %0, ptr %2, align 8, !tbaa !36
  %3 = load ptr, ptr %2, align 8, !tbaa !36
  %4 = getelementptr inbounds nuw %struct.PyVarObject, ptr %3, i32 0, i32 1
  %5 = load i64, ptr %4, align 8, !tbaa !38
  ret i64 %5
}

; Function Attrs: nounwind uwtable
define internal i32 @ins1(ptr noundef %0, i64 noundef %1, ptr noundef %2) #0 {
  %4 = alloca i32, align 4
  %5 = alloca ptr, align 8
  %6 = alloca i64, align 8
  %7 = alloca ptr, align 8
  %8 = alloca i64, align 8
  %9 = alloca i64, align 8
  %10 = alloca ptr, align 8
  %11 = alloca i32, align 4
  store ptr %0, ptr %5, align 8, !tbaa !27
  store i64 %1, ptr %6, align 8, !tbaa !26
  store ptr %2, ptr %7, align 8, !tbaa !36
  call void @llvm.lifetime.start.p0(i64 8, ptr %8) #8
  call void @llvm.lifetime.start.p0(i64 8, ptr %9) #8
  %12 = load ptr, ptr %5, align 8, !tbaa !27
  %13 = call i64 @Py_SIZE(ptr noundef %12)
  store i64 %13, ptr %9, align 8, !tbaa !26
  call void @llvm.lifetime.start.p0(i64 8, ptr %10) #8
  %14 = load ptr, ptr %7, align 8, !tbaa !36
  %15 = icmp eq ptr %14, null
  br i1 %15, label %16, label %17

16:                                               ; preds = %3
  call void @_PyErr_BadInternalCall(ptr noundef @.str.1, i32 noundef 452)
  store i32 -1, ptr %4, align 4
  store i32 1, ptr %11, align 4
  br label %66

17:                                               ; preds = %3
  %18 = load ptr, ptr %5, align 8, !tbaa !27
  %19 = load i64, ptr %9, align 8, !tbaa !26
  %20 = add i64 %19, 1
  %21 = call i32 @list_resize(ptr noundef %18, i64 noundef %20)
  %22 = icmp slt i32 %21, 0
  br i1 %22, label %23, label %24

23:                                               ; preds = %17
  store i32 -1, ptr %4, align 4
  store i32 1, ptr %11, align 4
  br label %66

24:                                               ; preds = %17
  %25 = load i64, ptr %6, align 8, !tbaa !26
  %26 = icmp slt i64 %25, 0
  br i1 %26, label %27, label %35

27:                                               ; preds = %24
  %28 = load i64, ptr %9, align 8, !tbaa !26
  %29 = load i64, ptr %6, align 8, !tbaa !26
  %30 = add i64 %29, %28
  store i64 %30, ptr %6, align 8, !tbaa !26
  %31 = load i64, ptr %6, align 8, !tbaa !26
  %32 = icmp slt i64 %31, 0
  br i1 %32, label %33, label %34

33:                                               ; preds = %27
  store i64 0, ptr %6, align 8, !tbaa !26
  br label %34

34:                                               ; preds = %33, %27
  br label %35

35:                                               ; preds = %34, %24
  %36 = load i64, ptr %6, align 8, !tbaa !26
  %37 = load i64, ptr %9, align 8, !tbaa !26
  %38 = icmp sgt i64 %36, %37
  br i1 %38, label %39, label %41

39:                                               ; preds = %35
  %40 = load i64, ptr %9, align 8, !tbaa !26
  store i64 %40, ptr %6, align 8, !tbaa !26
  br label %41

41:                                               ; preds = %39, %35
  %42 = load ptr, ptr %5, align 8, !tbaa !27
  %43 = getelementptr inbounds nuw %struct.PyListObject, ptr %42, i32 0, i32 1
  %44 = load ptr, ptr %43, align 8, !tbaa !28
  store ptr %44, ptr %10, align 8, !tbaa !119
  %45 = load i64, ptr %9, align 8, !tbaa !26
  store i64 %45, ptr %8, align 8, !tbaa !26
  br label %46

46:                                               ; preds = %51, %41
  %47 = load i64, ptr %8, align 8, !tbaa !26
  %48 = add i64 %47, -1
  store i64 %48, ptr %8, align 8, !tbaa !26
  %49 = load i64, ptr %6, align 8, !tbaa !26
  %50 = icmp sge i64 %48, %49
  br i1 %50, label %51, label %60

51:                                               ; preds = %46
  %52 = load ptr, ptr %10, align 8, !tbaa !119
  %53 = load i64, ptr %8, align 8, !tbaa !26
  %54 = getelementptr ptr, ptr %52, i64 %53
  %55 = load ptr, ptr %54, align 8, !tbaa !36
  %56 = load ptr, ptr %10, align 8, !tbaa !119
  %57 = load i64, ptr %8, align 8, !tbaa !26
  %58 = add i64 %57, 1
  %59 = getelementptr ptr, ptr %56, i64 %58
  store ptr %55, ptr %59, align 8, !tbaa !36
  br label %46, !llvm.loop !120

60:                                               ; preds = %46
  %61 = load ptr, ptr %7, align 8, !tbaa !36
  %62 = call ptr @_Py_NewRef(ptr noundef %61)
  %63 = load ptr, ptr %10, align 8, !tbaa !119
  %64 = load i64, ptr %6, align 8, !tbaa !26
  %65 = getelementptr ptr, ptr %63, i64 %64
  store ptr %62, ptr %65, align 8, !tbaa !36
  store i32 0, ptr %4, align 4
  store i32 1, ptr %11, align 4
  br label %66

66:                                               ; preds = %60, %23, %16
  call void @llvm.lifetime.end.p0(i64 8, ptr %10) #8
  call void @llvm.lifetime.end.p0(i64 8, ptr %9) #8
  call void @llvm.lifetime.end.p0(i64 8, ptr %8) #8
  %67 = load i32, ptr %4, align 4
  ret i32 %67
}