; Function Attrs: nounwind uwtable
define internal fastcc range(i32 -1, 1) i32 @ins1(ptr noundef captures(none) %0, i64 noundef %1, ptr noundef %2) unnamed_addr #0 {
  %4 = getelementptr i8, ptr %0, i64 16
  %.val = load i64, ptr %4, align 8, !tbaa !33
  %5 = icmp eq ptr %2, null
  br i1 %5, label %6, label %7

6:                                                ; preds = %3
  tail call void @_PyErr_BadInternalCall(ptr noundef nonnull @.str.1, i32 noundef 452) #12
  br label %47

7:                                                ; preds = %3
  %8 = add i64 %.val, 1
  %9 = getelementptr inbounds nuw i8, ptr %0, i64 32
  %10 = load i64, ptr %9, align 8, !tbaa !34
  %.not.i = icmp slt i64 %10, %8
  %11 = ashr i64 %10, 1
  %.not32.i = icmp slt i64 %8, %11
  %or.cond.i = or i1 %.not.i, %.not32.i
  br i1 %or.cond.i, label %13, label %12

12:                                               ; preds = %7
  store i64 %8, ptr %4, align 8, !tbaa !33
  %.phi.trans.insert = getelementptr inbounds nuw i8, ptr %0, i64 24
  %.pre = load ptr, ptr %.phi.trans.insert, align 8, !tbaa !27
  br label %32

13:                                               ; preds = %7
  %14 = ashr i64 %8, 3
  %15 = add i64 %.val, 7
  %16 = add i64 %15, %14
  %17 = and i64 %16, -4
  %18 = sub i64 %17, %8
  %19 = icmp slt i64 %18, 1
  %20 = and i64 %.val, -4
  %21 = add i64 %20, 4
  %.028.i = select i1 %19, i64 %21, i64 %17
  %22 = icmp eq i64 %8, 0
  %.129.i = select i1 %22, i64 0, i64 %.028.i
  %23 = icmp ult i64 %.129.i, 1152921504606846976
  br i1 %23, label %24, label %list_resize.exit

24:                                               ; preds = %13
  %25 = shl nuw nsw i64 %.129.i, 3
  %26 = getelementptr inbounds nuw i8, ptr %0, i64 24
  %27 = load ptr, ptr %26, align 8, !tbaa !27
  %28 = tail call ptr @PyMem_Realloc(ptr noundef %27, i64 noundef %25) #12
  %29 = icmp eq ptr %28, null
  br i1 %29, label %list_resize.exit, label %30

30:                                               ; preds = %24
  store ptr %28, ptr %26, align 8, !tbaa !27
  store i64 %8, ptr %4, align 8, !tbaa !33
  store i64 %.129.i, ptr %9, align 8, !tbaa !34
  br label %32

list_resize.exit:                                 ; preds = %13, %24
  %31 = tail call ptr @PyErr_NoMemory() #12
  br label %47

32:                                               ; preds = %12, %30
  %33 = phi ptr [ %.pre, %12 ], [ %28, %30 ]
  %34 = icmp slt i64 %1, 0
  %35 = add i64 %.val, %1
  %spec.store.select = tail call i64 @llvm.smax.i64(i64 %35, i64 0)
  %.022 = select i1 %34, i64 %spec.store.select, i64 %1
  %.1 = tail call i64 @llvm.smin.i64(i64 %.022, i64 %.val)
  %36 = add i64 %.val, -1
  %.not30 = icmp slt i64 %36, %.1
  br i1 %.not30, label %._crit_edge, label %.lr.ph

.lr.ph:                                           ; preds = %32, %.lr.ph
  %37 = phi i64 [ %41, %.lr.ph ], [ %36, %32 ]
  %.02331 = phi i64 [ %37, %.lr.ph ], [ %.val, %32 ]
  %38 = getelementptr ptr, ptr %33, i64 %37
  %39 = load ptr, ptr %38, align 8, !tbaa !112
  %40 = getelementptr ptr, ptr %33, i64 %.02331
  store ptr %39, ptr %40, align 8, !tbaa !112
  %41 = add i64 %37, -1
  %.not = icmp slt i64 %41, %.1
  br i1 %.not, label %._crit_edge, label %.lr.ph, !llvm.loop !113

._crit_edge:                                      ; preds = %.lr.ph, %32
  %42 = load i32, ptr %2, align 8, !tbaa !32
  %43 = icmp slt i32 %42, 0
  br i1 %43, label %_Py_NewRef.exit, label %44

44:                                               ; preds = %._crit_edge
  %45 = add nuw i32 %42, 1
  store i32 %45, ptr %2, align 8, !tbaa !32
  br label %_Py_NewRef.exit

_Py_NewRef.exit:                                  ; preds = %._crit_edge, %44
  %46 = getelementptr ptr, ptr %33, i64 %.1
  store ptr %2, ptr %46, align 8, !tbaa !112
  br label %47

47:                                               ; preds = %list_resize.exit, %_Py_NewRef.exit, %6
  %.0 = phi i32 [ -1, %6 ], [ 0, %_Py_NewRef.exit ], [ -1, %list_resize.exit ]
  ret i32 %.0
}